; Function Attrs: nounwind uwtable
define ptr @Cudd_addRoundOff(ptr noundef %0, ptr noundef %1, i32 noundef %2) #0 {
  %4 = sitofp i32 %2 to double
  %5 = tail call double @pow(double noundef 1.000000e+01, double noundef %4) #4, !tbaa !29
  %6 = getelementptr inbounds nuw i8, ptr %0, i64 448
  br label %7

7:                                                ; preds = %7, %3
  %8 = tail call ptr @cuddAddRoundOffRecur(ptr noundef %0, ptr noundef %1, double noundef %5)
  %9 = load i32, ptr %6, align 8, !tbaa !3
  %10 = icmp eq i32 %9, 1
  br i1 %10, label %7, label %11, !llvm.loop !30

11:                                               ; preds = %7
  ret ptr %8
}